target datalayout = "e-m:e-p270:32:32-p271:32:32-p272:64:64-i64:64-i128:128-f80:128-n8:16:32:64-S128"
target triple = "x86_64-pc-linux-gnu"

%struct.uv_handle_s = type { ptr, ptr, i32, ptr, %struct.uv__queue, %union.anon.0, ptr, i32 }
%struct.uv__queue = type { ptr, ptr }
%union.anon.0 = type { [4 x ptr] }
%struct.uv_loop_s = type { ptr, i32, %struct.uv__queue, %union.anon.1, ptr, i32, i64, i32, %struct.uv__queue, %struct.uv__queue, ptr, i32, i32, %struct.uv__queue, %union.pthread_mutex_t, %struct.uv_async_s, %union.pthread_rwlock_t, ptr, %struct.uv__queue, %struct.uv__queue, %struct.uv__queue, %struct.uv__queue, %struct.uv__queue, ptr, %struct.uv__io_s, i32, %struct.anon, i64, i64, [2 x i32], %struct.uv__io_s, %struct.uv_signal_s, i32, %struct.uv__io_s, ptr, i32 }
%union.anon.1 = type { ptr }
%union.pthread_mutex_t = type { %struct.__pthread_mutex_s }
%struct.__pthread_mutex_s = type { i32, i32, i32, i32, i32, i16, i16, %struct.__pthread_internal_list }
%struct.__pthread_internal_list = type { ptr, ptr }
%struct.uv_async_s = type { ptr, ptr, i32, ptr, %struct.uv__queue, %union.anon.2, ptr, i32, ptr, %struct.uv__queue, i32 }
%union.anon.2 = type { [4 x ptr] }
%union.pthread_rwlock_t = type { %struct.__pthread_rwlock_arch_t }
%struct.__pthread_rwlock_arch_t = type { i32, i32, i32, i32, i32, i32, i32, i32, i8, [7 x i8], i64, i32 }
%struct.anon = type { ptr, i32 }
%struct.uv_signal_s = type { ptr, ptr, i32, ptr, %struct.uv__queue, %union.anon.3, ptr, i32, ptr, i32, %struct.anon.4, i32, i32 }
%union.anon.3 = type { [4 x ptr] }
%struct.anon.4 = type { ptr, ptr, ptr, i32 }
%struct.uv__io_s = type { ptr, %struct.uv__queue, %struct.uv__queue, i32, i32, i32 }
%struct.uv_stream_s = type { ptr, ptr, i32, ptr, %struct.uv__queue, %union.anon, ptr, i32, i64, ptr, ptr, ptr, ptr, %struct.uv__io_s, %struct.uv__queue, %struct.uv__queue, ptr, i32, i32, ptr }
%union.anon = type { [4 x ptr] }

@.str = private unnamed_addr constant [10 x i8] c"/dev/null\00", align 1
@.str.1 = private unnamed_addr constant [2 x i8] c"/\00", align 1

; Function Attrs: inlinehint nounwind uwtable
define internal void @uv__queue_init(ptr noundef %0) #2 {
  %2 = alloca ptr, align 8
  store ptr %0, ptr %2, align 8
  %3 = load ptr, ptr %2, align 8
  %4 = load ptr, ptr %2, align 8
  %5 = getelementptr inbounds nuw %struct.uv__queue, ptr %4, i32 0, i32 0
  store ptr %3, ptr %5, align 8
  %6 = load ptr, ptr %2, align 8
  %7 = load ptr, ptr %2, align 8
  %8 = getelementptr inbounds nuw %struct.uv__queue, ptr %7, i32 0, i32 1
  store ptr %6, ptr %8, align 8
  ret void
}

; Function Attrs: inlinehint nounwind uwtable
define internal void @uv__queue_insert_tail(ptr noundef %0, ptr noundef %1) #2 {
  %3 = alloca ptr, align 8
  %4 = alloca ptr, align 8
  store ptr %0, ptr %3, align 8
  store ptr %1, ptr %4, align 8
  %5 = load ptr, ptr %3, align 8
  %6 = load ptr, ptr %4, align 8
  %7 = getelementptr inbounds nuw %struct.uv__queue, ptr %6, i32 0, i32 0
  store ptr %5, ptr %7, align 8
  %8 = load ptr, ptr %3, align 8
  %9 = getelementptr inbounds nuw %struct.uv__queue, ptr %8, i32 0, i32 1
  %10 = load ptr, ptr %9, align 8
  %11 = load ptr, ptr %4, align 8
  %12 = getelementptr inbounds nuw %struct.uv__queue, ptr %11, i32 0, i32 1
  store ptr %10, ptr %12, align 8
  %13 = load ptr, ptr %4, align 8
  %14 = load ptr, ptr %4, align 8
  %15 = getelementptr inbounds nuw %struct.uv__queue, ptr %14, i32 0, i32 1
  %16 = load ptr, ptr %15, align 8
  %17 = getelementptr inbounds nuw %struct.uv__queue, ptr %16, i32 0, i32 0
  store ptr %13, ptr %17, align 8
  %18 = load ptr, ptr %4, align 8
  %19 = load ptr, ptr %3, align 8
  %20 = getelementptr inbounds nuw %struct.uv__queue, ptr %19, i32 0, i32 1
  store ptr %18, ptr %20, align 8
  ret void
}

; Function Attrs: nounwind uwtable
define hidden void @uv__stream_init(ptr noundef %0, ptr noundef %1, i32 noundef %2) #0 {
  %4 = alloca ptr, align 8
  %5 = alloca ptr, align 8
  %6 = alloca i32, align 4
  %7 = alloca i32, align 4
  store ptr %0, ptr %4, align 8
  store ptr %1, ptr %5, align 8
  store i32 %2, ptr %6, align 4
  call void @llvm.lifetime.start.p0(i64 4, ptr %7) #8
  br label %8

8:                                                ; preds = %3
  %9 = load ptr, ptr %4, align 8
  %10 = load ptr, ptr %5, align 8
  %11 = getelementptr inbounds nuw %struct.uv_handle_s, ptr %10, i32 0, i32 1
  store ptr %9, ptr %11, align 8
  %12 = load i32, ptr %6, align 4
  %13 = load ptr, ptr %5, align 8
  %14 = getelementptr inbounds nuw %struct.uv_handle_s, ptr %13, i32 0, i32 2
  store i32 %12, ptr %14, align 8
  %15 = load ptr, ptr %5, align 8
  %16 = getelementptr inbounds nuw %struct.uv_handle_s, ptr %15, i32 0, i32 7
  store i32 8, ptr %16, align 8
  %17 = load ptr, ptr %4, align 8
  %18 = getelementptr inbounds nuw %struct.uv_loop_s, ptr %17, i32 0, i32 2
  %19 = load ptr, ptr %5, align 8
  %20 = getelementptr inbounds nuw %struct.uv_handle_s, ptr %19, i32 0, i32 4
  call void @uv__queue_insert_tail(ptr noundef %18, ptr noundef %20)
  %21 = load ptr, ptr %5, align 8
  %22 = getelementptr inbounds nuw %struct.uv_handle_s, ptr %21, i32 0, i32 6
  store ptr null, ptr %22, align 8
  br label %23

23:                                               ; preds = %8
  br label %24

24:                                               ; preds = %23
  %25 = load ptr, ptr %5, align 8
  %26 = getelementptr inbounds nuw %struct.uv_stream_s, ptr %25, i32 0, i32 10
  store ptr null, ptr %26, align 8
  %27 = load ptr, ptr %5, align 8
  %28 = getelementptr inbounds nuw %struct.uv_stream_s, ptr %27, i32 0, i32 9
  store ptr null, ptr %28, align 8
  %29 = load ptr, ptr %5, align 8
  %30 = getelementptr inbounds nuw %struct.uv_stream_s, ptr %29, i32 0, i32 3
  store ptr null, ptr %30, align 8
  %31 = load ptr, ptr %5, align 8
  %32 = getelementptr inbounds nuw %struct.uv_stream_s, ptr %31, i32 0, i32 16
  store ptr null, ptr %32, align 8
  %33 = load ptr, ptr %5, align 8
  %34 = getelementptr inbounds nuw %struct.uv_stream_s, ptr %33, i32 0, i32 11
  store ptr null, ptr %34, align 8
  %35 = load ptr, ptr %5, align 8
  %36 = getelementptr inbounds nuw %struct.uv_stream_s, ptr %35, i32 0, i32 12
  store ptr null, ptr %36, align 8
  %37 = load ptr, ptr %5, align 8
  %38 = getelementptr inbounds nuw %struct.uv_stream_s, ptr %37, i32 0, i32 18
  store i32 -1, ptr %38, align 4
  %39 = load ptr, ptr %5, align 8
  %40 = getelementptr inbounds nuw %struct.uv_stream_s, ptr %39, i32 0, i32 19
  store ptr null, ptr %40, align 8
  %41 = load ptr, ptr %5, align 8
  %42 = getelementptr inbounds nuw %struct.uv_stream_s, ptr %41, i32 0, i32 17
  store i32 0, ptr %42, align 8
  %43 = load ptr, ptr %5, align 8
  %44 = getelementptr inbounds nuw %struct.uv_stream_s, ptr %43, i32 0, i32 14
  call void @uv__queue_init(ptr noundef %44)
  %45 = load ptr, ptr %5, align 8
  %46 = getelementptr inbounds nuw %struct.uv_stream_s, ptr %45, i32 0, i32 15
  call void @uv__queue_init(ptr noundef %46)
  %47 = load ptr, ptr %5, align 8
  %48 = getelementptr inbounds nuw %struct.uv_stream_s, ptr %47, i32 0, i32 8
  store i64 0, ptr %48, align 8
  %49 = load ptr, ptr %4, align 8
  %50 = getelementptr inbounds nuw %struct.uv_loop_s, ptr %49, i32 0, i32 32
  %51 = load i32, ptr %50, align 8
  %52 = icmp eq i32 %51, -1
  br i1 %52, label %53, label %67

53:                                               ; preds = %24
  %54 = call i32 @uv__open_cloexec(ptr noundef @.str, i32 noundef 0)
  store i32 %54, ptr %7, align 4
  %55 = load i32, ptr %7, align 4
  %56 = icmp slt i32 %55, 0
  br i1 %56, label %57, label %59

57:                                               ; preds = %53
  %58 = call i32 @uv__open_cloexec(ptr noundef @.str.1, i32 noundef 0)
  store i32 %58, ptr %7, align 4
  br label %59

59:                                               ; preds = %57, %53
  %60 = load i32, ptr %7, align 4
  %61 = icmp sge i32 %60, 0
  br i1 %61, label %62, label %66

62:                                               ; preds = %59
  %63 = load i32, ptr %7, align 4
  %64 = load ptr, ptr %4, align 8
  %65 = getelementptr inbounds nuw %struct.uv_loop_s, ptr %64, i32 0, i32 32
  store i32 %63, ptr %65, align 8
  br label %66

66:                                               ; preds = %62, %59
  br label %67

67:                                               ; preds = %66, %24
  %68 = load ptr, ptr %5, align 8
  %69 = getelementptr inbounds nuw %struct.uv_stream_s, ptr %68, i32 0, i32 13
  call void @uv__io_init(ptr noundef %69, ptr noundef @uv__stream_io, i32 noundef -1)
  call void @llvm.lifetime.end.p0(i64 4, ptr %7) #8
  ret void
}